target datalayout = "e-m:e-p270:32:32-p271:32:32-p272:64:64-i64:64-i128:128-f80:128-n8:16:32:64-S128"
target triple = "x86_64-pc-linux-gnu"

%class.anon = type { ptr }
%"class.std::function" = type { %"class.std::_Function_base", ptr }
%"class.std::_Function_base" = type { %"union.std::_Any_data", ptr }
%"union.std::_Any_data" = type { %"union.std::_Nocopy_types" }
%"union.std::_Nocopy_types" = type { { i64, i64 } }

; Function Attrs: mustprogress nounwind uwtable
define linkonce_odr dso_local noundef ptr @_ZNSt9_Any_data9_M_accessEv(ptr noundef nonnull align 8 dereferenceable(16) %0) #1 comdat align 2 {
  %2 = alloca ptr, align 8
  store ptr %0, ptr %2, align 8, !tbaa !51
  %3 = load ptr, ptr %2, align 8
  %4 = getelementptr inbounds [16 x i8], ptr %3, i64 0, i64 0
  ret ptr %4
}

; Function Attrs: mustprogress nounwind uwtable
define internal void @"_ZNSt14_Function_base13_Base_managerIZN3igl6embree19unproject_onto_meshERKN5Eigen6MatrixIfLi2ELi1ELi0ELi2ELi1EEERKNS4_IfLi4ELi4ELi0ELi4ELi4EEESA_RKNS4_IfLi4ELi1ELi0ELi4ELi1EEERKNS2_17EmbreeIntersectorERiRNS4_IfLi3ELi1ELi0ELi3ELi1EEEE3$_0E9_M_createIRKSK_EEvRSt9_Any_dataOT_St17integral_constantIbLb1EE"(ptr noundef nonnull align 8 dereferenceable(16) %0, ptr noundef nonnull align 8 dereferenceable(8) %1) #1 align 2 {
  %3 = alloca ptr, align 8
  %4 = alloca ptr, align 8
  store ptr %0, ptr %3, align 8, !tbaa !51
  store ptr %1, ptr %4, align 8, !tbaa !27
  %5 = load ptr, ptr %3, align 8, !tbaa !51
  %6 = call noundef ptr @_ZNSt9_Any_data9_M_accessEv(ptr noundef nonnull align 8 dereferenceable(16) %5) #11
  %7 = load ptr, ptr %4, align 8, !tbaa !27
  call void @llvm.memcpy.p0.p0.i64(ptr align 8 %6, ptr align 8 %7, i64 8, i1 false), !tbaa.struct !59
  ret void
}

; Function Attrs: mustprogress nounwind uwtable
define internal void @"_ZNSt14_Function_base13_Base_managerIZN3igl6embree19unproject_onto_meshERKN5Eigen6MatrixIfLi2ELi1ELi0ELi2ELi1EEERKNS4_IfLi4ELi4ELi0ELi4ELi4EEESA_RKNS4_IfLi4ELi1ELi0ELi4ELi1EEERKNS2_17EmbreeIntersectorERiRNS4_IfLi3ELi1ELi0ELi3ELi1EEEE3$_0E15_M_init_functorIRKSK_EEvRSt9_Any_dataOT_"(ptr noundef nonnull align 8 dereferenceable(16) %0, ptr noundef nonnull align 8 dereferenceable(8) %1) #1 align 2 personality ptr @__gxx_personality_v0 {
  %3 = alloca ptr, align 8
  %4 = alloca ptr, align 8
  store ptr %0, ptr %3, align 8, !tbaa !51
  store ptr %1, ptr %4, align 8, !tbaa !27
  %5 = load ptr, ptr %3, align 8, !tbaa !51
  %6 = load ptr, ptr %4, align 8, !tbaa !27
  invoke void @"_ZNSt14_Function_base13_Base_managerIZN3igl6embree19unproject_onto_meshERKN5Eigen6MatrixIfLi2ELi1ELi0ELi2ELi1EEERKNS4_IfLi4ELi4ELi0ELi4ELi4EEESA_RKNS4_IfLi4ELi1ELi0ELi4ELi1EEERKNS2_17EmbreeIntersectorERiRNS4_IfLi3ELi1ELi0ELi3ELi1EEEE3$_0E9_M_createIRKSK_EEvRSt9_Any_dataOT_St17integral_constantIbLb1EE"(ptr noundef nonnull align 8 dereferenceable(16) %5, ptr noundef nonnull align 8 dereferenceable(8) %6)
          to label %7 unwind label %8

7:                                                ; preds = %2
  ret void

8:                                                ; preds = %2
  %9 = landingpad { ptr, i32 }
          catch ptr null
  %10 = extractvalue { ptr, i32 } %9, 0
  call void @__clang_call_terminate(ptr %10) #12
  unreachable
}

; Function Attrs: mustprogress nounwind uwtable
define internal noundef zeroext i1 @"_ZNSt14_Function_base13_Base_managerIZN3igl6embree19unproject_onto_meshERKN5Eigen6MatrixIfLi2ELi1ELi0ELi2ELi1EEERKNS4_IfLi4ELi4ELi0ELi4ELi4EEESA_RKNS4_IfLi4ELi1ELi0ELi4ELi1EEERKNS2_17EmbreeIntersectorERiRNS4_IfLi3ELi1ELi0ELi3ELi1EEEE3$_0E21_M_not_empty_functionISK_EEbRKT_"(ptr noundef nonnull align 8 dereferenceable(8) %0) #1 align 2 {
  %2 = alloca ptr, align 8
  store ptr %0, ptr %2, align 8, !tbaa !27
  ret i1 true
}

; Function Attrs: mustprogress nounwind uwtable
define linkonce_odr dso_local void @_ZNSt14_Function_baseC2Ev(ptr noundef nonnull align 8 dereferenceable(24) %0) unnamed_addr #1 comdat align 2 {
  %2 = alloca ptr, align 8
  store ptr %0, ptr %2, align 8, !tbaa !34
  %3 = load ptr, ptr %2, align 8
  %4 = getelementptr inbounds nuw %"class.std::_Function_base", ptr %3, i32 0, i32 0
  store ptr null, ptr %4, align 8, !tbaa !50
  %5 = getelementptr inbounds nuw %"class.std::_Function_base", ptr %3, i32 0, i32 1
  store ptr null, ptr %5, align 8, !tbaa !33
  ret void
}

; Function Attrs: mustprogress nounwind uwtable
define linkonce_odr dso_local void @_ZNSt14_Function_baseD2Ev(ptr noundef nonnull align 8 dereferenceable(24) %0) unnamed_addr #1 comdat align 2 personality ptr @__gxx_personality_v0 {
  %2 = alloca ptr, align 8
  store ptr %0, ptr %2, align 8, !tbaa !34
  %3 = load ptr, ptr %2, align 8
  %4 = getelementptr inbounds nuw %"class.std::_Function_base", ptr %3, i32 0, i32 1
  %5 = load ptr, ptr %4, align 8, !tbaa !33
  %6 = icmp ne ptr %5, null
  br i1 %6, label %7, label %14

7:                                                ; preds = %1
  %8 = getelementptr inbounds nuw %"class.std::_Function_base", ptr %3, i32 0, i32 1
  %9 = load ptr, ptr %8, align 8, !tbaa !33
  %10 = getelementptr inbounds nuw %"class.std::_Function_base", ptr %3, i32 0, i32 0
  %11 = getelementptr inbounds nuw %"class.std::_Function_base", ptr %3, i32 0, i32 0
  %12 = invoke noundef zeroext i1 %9(ptr noundef nonnull align 8 dereferenceable(16) %10, ptr noundef nonnull align 8 dereferenceable(16) %11, i32 noundef 3)
          to label %13 unwind label %15

13:                                               ; preds = %7
  br label %14

14:                                               ; preds = %13, %1
  ret void

15:                                               ; preds = %7
  %16 = landingpad { ptr, i32 }
          catch ptr null
  %17 = extractvalue { ptr, i32 } %16, 0
  call void @__clang_call_terminate(ptr %17) #12
  unreachable
}

; Function Attrs: mustprogress nounwind uwtable
define internal void @"_ZNSt8functionIFbRKN5Eigen6MatrixIfLi3ELi1ELi0ELi3ELi1EEES4_RN3igl3HitIfEEEEC2IRKZNS5_6embree19unproject_onto_meshERKNS1_IfLi2ELi1ELi0ELi2ELi1EEERKNS1_IfLi4ELi4ELi0ELi4ELi4EEESI_RKNS1_IfLi4ELi1ELi0ELi4ELi1EEERKNSC_17EmbreeIntersectorERiRS2_E3$_0vEEOT_"(ptr noundef nonnull align 8 dereferenceable(32) %0, ptr noundef nonnull align 8 dereferenceable(8) %1) unnamed_addr #1 align 2 {
  %3 = alloca ptr, align 8
  %4 = alloca ptr, align 8
  store ptr %0, ptr %3, align 8, !tbaa !28
  store ptr %1, ptr %4, align 8, !tbaa !27
  %5 = load ptr, ptr %3, align 8
  %6 = getelementptr inbounds i8, ptr %5, i64 0
  call void @llvm.memset.p0.i64(ptr align 8 %6, i8 0, i64 24, i1 false)
  call void @_ZNSt14_Function_baseC2Ev(ptr noundef nonnull align 8 dereferenceable(24) %5) #11
  %7 = getelementptr inbounds nuw %"class.std::function", ptr %5, i32 0, i32 1
  store ptr null, ptr %7, align 8, !tbaa !30
  %8 = load ptr, ptr %4, align 8, !tbaa !27
  %9 = call noundef zeroext i1 @"_ZNSt14_Function_base13_Base_managerIZN3igl6embree19unproject_onto_meshERKN5Eigen6MatrixIfLi2ELi1ELi0ELi2ELi1EEERKNS4_IfLi4ELi4ELi0ELi4ELi4EEESA_RKNS4_IfLi4ELi1ELi0ELi4ELi1EEERKNS2_17EmbreeIntersectorERiRNS4_IfLi3ELi1ELi0ELi3ELi1EEEE3$_0E21_M_not_empty_functionISK_EEbRKT_"(ptr noundef nonnull align 8 dereferenceable(8) %8) #11
  br i1 %9, label %10, label %15

10:                                               ; preds = %2
  %11 = getelementptr inbounds nuw %"class.std::_Function_base", ptr %5, i32 0, i32 0
  %12 = load ptr, ptr %4, align 8, !tbaa !27
  call void @"_ZNSt14_Function_base13_Base_managerIZN3igl6embree19unproject_onto_meshERKN5Eigen6MatrixIfLi2ELi1ELi0ELi2ELi1EEERKNS4_IfLi4ELi4ELi0ELi4ELi4EEESA_RKNS4_IfLi4ELi1ELi0ELi4ELi1EEERKNS2_17EmbreeIntersectorERiRNS4_IfLi3ELi1ELi0ELi3ELi1EEEE3$_0E15_M_init_functorIRKSK_EEvRSt9_Any_dataOT_"(ptr noundef nonnull align 8 dereferenceable(16) %11, ptr noundef nonnull align 8 dereferenceable(8) %12) #11
  %13 = getelementptr inbounds nuw %"class.std::function", ptr %5, i32 0, i32 1
  store ptr @"_ZNSt17_Function_handlerIFbRKN5Eigen6MatrixIfLi3ELi1ELi0ELi3ELi1EEES4_RN3igl3HitIfEEEZNS5_6embree19unproject_onto_meshERKNS1_IfLi2ELi1ELi0ELi2ELi1EEERKNS1_IfLi4ELi4ELi0ELi4ELi4EEESG_RKNS1_IfLi4ELi1ELi0ELi4ELi1EEERKNSA_17EmbreeIntersectorERiRS2_E3$_0E9_M_invokeERKSt9_Any_dataS4_S4_S8_", ptr %13, align 8, !tbaa !30
  %14 = getelementptr inbounds nuw %"class.std::_Function_base", ptr %5, i32 0, i32 1
  store ptr @"_ZNSt17_Function_handlerIFbRKN5Eigen6MatrixIfLi3ELi1ELi0ELi3ELi1EEES4_RN3igl3HitIfEEEZNS5_6embree19unproject_onto_meshERKNS1_IfLi2ELi1ELi0ELi2ELi1EEERKNS1_IfLi4ELi4ELi0ELi4ELi4EEESG_RKNS1_IfLi4ELi1ELi0ELi4ELi1EEERKNSA_17EmbreeIntersectorERiRS2_E3$_0E10_M_managerERSt9_Any_dataRKSR_St18_Manager_operation", ptr %14, align 8, !tbaa !33
  br label %15

15:                                               ; preds = %10, %2
  ret void
}

; Function Attrs: mustprogress uwtable
define dso_local noundef zeroext i1 @_ZN3igl6embree19unproject_onto_meshERKN5Eigen6MatrixIfLi2ELi1ELi0ELi2ELi1EEERKNS2_IfLi4ELi4ELi0ELi4ELi4EEES8_RKNS2_IfLi4ELi1ELi0ELi4ELi1EEERKNS0_17EmbreeIntersectorERiRNS2_IfLi3ELi1ELi0ELi3ELi1EEE(ptr noundef nonnull align 1 %0, ptr noundef nonnull align 1 %1, ptr noundef nonnull align 1 %2, ptr noundef nonnull align 16 dereferenceable(16) %3, ptr noundef nonnull align 8 dereferenceable(56) %4, ptr noundef nonnull align 4 dereferenceable(4) %5, ptr noundef nonnull align 4 dereferenceable(12) %6) #3 personality ptr @__gxx_personality_v0 {
  %8 = alloca ptr, align 8
  %9 = alloca ptr, align 8
  %10 = alloca ptr, align 8
  %11 = alloca ptr, align 8
  %12 = alloca ptr, align 8
  %13 = alloca ptr, align 8
  %14 = alloca ptr, align 8
  %15 = alloca ptr, align 8
  %16 = alloca %class.anon, align 8
  %17 = alloca %"class.std::function", align 8
  %18 = alloca ptr, align 8
  %19 = alloca i32, align 4
  store ptr %0, ptr %8, align 8, !tbaa !15
  store ptr %1, ptr %9, align 8, !tbaa !17
  store ptr %2, ptr %10, align 8, !tbaa !17
  store ptr %3, ptr %11, align 8, !tbaa !19
  store ptr %4, ptr %12, align 8, !tbaa !21
  store ptr %5, ptr %13, align 8, !tbaa !23
  store ptr %6, ptr %14, align 8, !tbaa !25
  call void @llvm.lifetime.start.p0(i64 8, ptr %15) #11
  call void @llvm.lifetime.start.p0(i64 8, ptr %16) #11
  %20 = getelementptr inbounds nuw %class.anon, ptr %16, i32 0, i32 0
  %21 = load ptr, ptr %12, align 8, !tbaa !21
  store ptr %21, ptr %20, align 8, !tbaa !21
  store ptr %16, ptr %15, align 8, !tbaa !27
  %22 = load ptr, ptr %8, align 8, !tbaa !15
  %23 = load ptr, ptr %9, align 8, !tbaa !17
  %24 = load ptr, ptr %10, align 8, !tbaa !17
  %25 = load ptr, ptr %11, align 8, !tbaa !19
  call void @llvm.lifetime.start.p0(i64 32, ptr %17) #11
  %26 = load ptr, ptr %15, align 8, !tbaa !27
  call void @"_ZNSt8functionIFbRKN5Eigen6MatrixIfLi3ELi1ELi0ELi3ELi1EEES4_RN3igl3HitIfEEEEC2IRKZNS5_6embree19unproject_onto_meshERKNS1_IfLi2ELi1ELi0ELi2ELi1EEERKNS1_IfLi4ELi4ELi0ELi4ELi4EEESI_RKNS1_IfLi4ELi1ELi0ELi4ELi1EEERKNSC_17EmbreeIntersectorERiRS2_E3$_0vEEOT_"(ptr noundef nonnull align 8 dereferenceable(32) %17, ptr noundef nonnull align 8 dereferenceable(8) %26) #11
  %27 = load ptr, ptr %13, align 8, !tbaa !23
  %28 = load ptr, ptr %14, align 8, !tbaa !25
  %29 = invoke noundef zeroext i1 @_ZN3igl19unproject_onto_meshIN5Eigen6MatrixIfLi3ELi1ELi0ELi3ELi1EEEEEbRKNS2_IfLi2ELi1ELi0ELi2ELi1EEERKNS2_IfLi4ELi4ELi0ELi4ELi4EEES9_RKNS2_IfLi4ELi1ELi0ELi4ELi1EEERKSt8functionIFbRKS3_SF_RNS_3HitIfEEEERiRNS1_15PlainObjectBaseIT_EE(ptr noundef nonnull align 1 %22, ptr noundef nonnull align 1 %23, ptr noundef nonnull align 1 %24, ptr noundef nonnull align 16 dereferenceable(16) %25, ptr noundef nonnull align 8 dereferenceable(32) %17, ptr noundef nonnull align 4 dereferenceable(4) %27, ptr noundef nonnull align 4 dereferenceable(12) %28)
          to label %30 unwind label %31

30:                                               ; preds = %7
  call void @_ZNSt14_Function_baseD2Ev(ptr noundef nonnull align 8 dereferenceable(32) %17) #11
  call void @llvm.lifetime.end.p0(i64 32, ptr %17) #11
  call void @llvm.lifetime.end.p0(i64 8, ptr %16) #11
  call void @llvm.lifetime.end.p0(i64 8, ptr %15) #11
  ret i1 %29

31:                                               ; preds = %7
  %32 = landingpad { ptr, i32 }
          cleanup
  %33 = extractvalue { ptr, i32 } %32, 0
  store ptr %33, ptr %18, align 8
  %34 = extractvalue { ptr, i32 } %32, 1
  store i32 %34, ptr %19, align 4
  call void @_ZNSt14_Function_baseD2Ev(ptr noundef nonnull align 8 dereferenceable(32) %17) #11
  call void @llvm.lifetime.end.p0(i64 32, ptr %17) #11
  call void @llvm.lifetime.end.p0(i64 8, ptr %16) #11
  call void @llvm.lifetime.end.p0(i64 8, ptr %15) #11
  br label %35

35:                                               ; preds = %31
  %36 = load ptr, ptr %18, align 8
  %37 = load i32, ptr %19, align 4
  %38 = insertvalue { ptr, i32 } poison, ptr %36, 0
  %39 = insertvalue { ptr, i32 } %38, i32 %37, 1
  resume { ptr, i32 } %39
}