; Function Attrs: mustprogress uwtable
define dso_local noundef zeroext i1 @_ZN3igl6embree19unproject_onto_meshERKN5Eigen6MatrixIfLi2ELi1ELi0ELi2ELi1EEERKNS2_IfLi4ELi4ELi0ELi4ELi4EEES8_RKNS2_IfLi4ELi1ELi0ELi4ELi1EEERKNS0_17EmbreeIntersectorERiRNS2_IfLi3ELi1ELi0ELi3ELi1EEE(ptr noundef nonnull align 1 %0, ptr noundef nonnull align 1 %1, ptr noundef nonnull align 1 %2, ptr noundef nonnull align 16 dereferenceable(16) %3, ptr noundef nonnull align 8 dereferenceable(56) %4, ptr noundef nonnull align 4 dereferenceable(4) %5, ptr noundef nonnull align 4 dereferenceable(12) %6) local_unnamed_addr #0 personality ptr @__gxx_personality_v0 {
  %8 = alloca %"class.std::function", align 8
  call void @llvm.lifetime.start.p0(i64 32, ptr nonnull %8) #6
  %9 = ptrtoint ptr %4 to i64
  %10 = getelementptr inbounds nuw i8, ptr %8, i64 16
  %11 = getelementptr inbounds nuw i8, ptr %8, i64 24
  %12 = getelementptr inbounds nuw i8, ptr %8, i64 8
  store i64 0, ptr %12, align 8
  store i64 %9, ptr %8, align 8, !tbaa !4
  store ptr @"_ZNSt17_Function_handlerIFbRKN5Eigen6MatrixIfLi3ELi1ELi0ELi3ELi1EEES4_RN3igl3HitIfEEEZNS5_6embree19unproject_onto_meshERKNS1_IfLi2ELi1ELi0ELi2ELi1EEERKNS1_IfLi4ELi4ELi0ELi4ELi4EEESG_RKNS1_IfLi4ELi1ELi0ELi4ELi1EEERKNSA_17EmbreeIntersectorERiRS2_E3$_0E9_M_invokeERKSt9_Any_dataS4_S4_S8_", ptr %11, align 8, !tbaa !9
  store ptr @"_ZNSt17_Function_handlerIFbRKN5Eigen6MatrixIfLi3ELi1ELi0ELi3ELi1EEES4_RN3igl3HitIfEEEZNS5_6embree19unproject_onto_meshERKNS1_IfLi2ELi1ELi0ELi2ELi1EEERKNS1_IfLi4ELi4ELi0ELi4ELi4EEESG_RKNS1_IfLi4ELi1ELi0ELi4ELi1EEERKNSA_17EmbreeIntersectorERiRS2_E3$_0E10_M_managerERSt9_Any_dataRKSR_St18_Manager_operation", ptr %10, align 8, !tbaa !12
  %13 = invoke noundef zeroext i1 @_ZN3igl19unproject_onto_meshIN5Eigen6MatrixIfLi3ELi1ELi0ELi3ELi1EEEEEbRKNS2_IfLi2ELi1ELi0ELi2ELi1EEERKNS2_IfLi4ELi4ELi0ELi4ELi4EEES9_RKNS2_IfLi4ELi1ELi0ELi4ELi1EEERKSt8functionIFbRKS3_SF_RNS_3HitIfEEEERiRNS1_15PlainObjectBaseIT_EE(ptr noundef nonnull align 1 %0, ptr noundef nonnull align 1 %1, ptr noundef nonnull align 1 %2, ptr noundef nonnull align 16 dereferenceable(16) %3, ptr noundef nonnull align 8 dereferenceable(32) %8, ptr noundef nonnull align 4 dereferenceable(4) %5, ptr noundef nonnull align 4 dereferenceable(12) %6)
          to label %14 unwind label %21

14:                                               ; preds = %7
  %15 = load ptr, ptr %10, align 8, !tbaa !12
  %.not.i = icmp eq ptr %15, null
  br i1 %.not.i, label %_ZNSt14_Function_baseD2Ev.exit, label %16

16:                                               ; preds = %14
  %17 = invoke noundef zeroext i1 %15(ptr noundef nonnull align 8 dereferenceable(32) %8, ptr noundef nonnull align 8 dereferenceable(32) %8, i32 noundef 3)
          to label %_ZNSt14_Function_baseD2Ev.exit unwind label %18

18:                                               ; preds = %16
  %19 = landingpad { ptr, i32 }
          catch ptr null
  %20 = extractvalue { ptr, i32 } %19, 0
  call void @__clang_call_terminate(ptr %20) #7
  unreachable

_ZNSt14_Function_baseD2Ev.exit:                   ; preds = %14, %16
  call void @llvm.lifetime.end.p0(i64 32, ptr nonnull %8) #6
  ret i1 %13

21:                                               ; preds = %7
  %22 = landingpad { ptr, i32 }
          cleanup
  %23 = load ptr, ptr %10, align 8, !tbaa !12
  %.not.i9 = icmp eq ptr %23, null
  br i1 %.not.i9, label %_ZNSt14_Function_baseD2Ev.exit10, label %24

24:                                               ; preds = %21
  %25 = invoke noundef zeroext i1 %23(ptr noundef nonnull align 8 dereferenceable(32) %8, ptr noundef nonnull align 8 dereferenceable(32) %8, i32 noundef 3)
          to label %_ZNSt14_Function_baseD2Ev.exit10 unwind label %26

26:                                               ; preds = %24
  %27 = landingpad { ptr, i32 }
          catch ptr null
  %28 = extractvalue { ptr, i32 } %27, 0
  call void @__clang_call_terminate(ptr %28) #7
  unreachable

_ZNSt14_Function_baseD2Ev.exit10:                 ; preds = %21, %24
  call void @llvm.lifetime.end.p0(i64 32, ptr nonnull %8) #6
  resume { ptr, i32 } %22
}